; Function Attrs: mustprogress uwtable
define void @_ZN7rocksdb23DBOptionsAsConfigurableERKNS_9DBOptionsEPKSt13unordered_mapINSt7__cxx1112basic_stringIcSt11char_traitsIcESaIcEEES9_St4hashIS9_ESt8equal_toIS9_ESaISt4pairIKS9_S9_EEE(ptr dead_on_unwind noalias writable writeonly sret(%"class.std::unique_ptr") align 8 captures(none) %0, ptr noundef nonnull align 8 dereferenceable(706) %1, ptr noundef %2) local_unnamed_addr #6 personality ptr @__gxx_personality_v0 {
  %4 = tail call noalias noundef nonnull dereferenceable(1496) ptr @_Znwm(i64 noundef 1496) #29
  invoke void @_ZN7rocksdb21DBOptionsConfigurableC2ERKNS_9DBOptionsEPKSt13unordered_mapINSt7__cxx1112basic_stringIcSt11char_traitsIcESaIcEEESA_St4hashISA_ESt8equal_toISA_ESaISt4pairIKSA_SA_EEE(ptr noundef nonnull align 8 dereferenceable(1496) %4, ptr noundef nonnull align 8 dereferenceable(706) %1, ptr noundef %2)
          to label %5 unwind label %6

5:                                                ; preds = %3
  store ptr %4, ptr %0, align 8, !tbaa !81
  ret void

6:                                                ; preds = %3
  %7 = landingpad { ptr, i32 }
          cleanup
  tail call void @_ZdlPvm(ptr noundef nonnull %4, i64 noundef 1496) #26
  resume { ptr, i32 } %7
}